target datalayout = "e-m:e-p270:32:32-p271:32:32-p272:64:64-i64:64-i128:128-f80:128-n8:16:32:64-S128"
target triple = "x86_64-pc-linux-gnu"

%struct.LexState = type { ptr, ptr, %union.TValue, %union.TValue, ptr, ptr, i32, i32, i32, %struct.SBuf, ptr, ptr, i32, i32, ptr, ptr, ptr, ptr, i32, i32, ptr, i32, i32, i32, i32 }
%union.TValue = type { i64 }
%struct.SBuf = type { ptr, ptr, ptr, %struct.MRef }
%struct.MRef = type { i64 }
%struct.FuncState = type { ptr, ptr, ptr, ptr, ptr, i32, i32, i32, i32, i32, i32, i32, i32, ptr, i32, i32, i8, i8, i8, i8, [200 x i16], [60 x i16], [60 x i16] }
%struct.GCRef = type { i64 }
%struct.ExpDesc = type { %union.anon.2, i32, i32, i32 }
%union.anon.2 = type { %union.TValue }
%struct.anon.3 = type { i32, i32 }
%struct.anon.0 = type { i32, i32 }

@.str = private unnamed_addr constant [24 x i8] c"store to dead GC object\00", align 1

; Function Attrs: alwaysinline nounwind uwtable
define internal void @checklivetv(ptr noundef %0, ptr noundef %1, ptr noundef %2) #4 {
  %4 = alloca ptr, align 8
  %5 = alloca ptr, align 8
  %6 = alloca ptr, align 8
  store ptr %0, ptr %4, align 8, !tbaa !23
  store ptr %1, ptr %5, align 8, !tbaa !30
  store ptr %2, ptr %6, align 8, !tbaa !9
  ret void
}

; Function Attrs: alwaysinline nounwind uwtable
define internal void @setgcVraw(ptr noundef %0, ptr noundef %1, i32 noundef %2) #4 {
  %4 = alloca ptr, align 8
  %5 = alloca ptr, align 8
  %6 = alloca i32, align 4
  store ptr %0, ptr %4, align 8, !tbaa !30
  store ptr %1, ptr %5, align 8, !tbaa !103
  store i32 %2, ptr %6, align 4, !tbaa !79
  %7 = load ptr, ptr %5, align 8, !tbaa !103
  %8 = ptrtoint ptr %7 to i64
  %9 = load i32, ptr %6, align 4, !tbaa !79
  %10 = zext i32 %9 to i64
  %11 = shl i64 %10, 47
  %12 = or i64 %8, %11
  %13 = load ptr, ptr %4, align 8, !tbaa !30
  %14 = getelementptr inbounds nuw %struct.GCRef, ptr %13, i32 0, i32 0
  store i64 %12, ptr %14, align 8, !tbaa !32
  ret void
}

; Function Attrs: alwaysinline nounwind uwtable
define internal void @setgcV(ptr noundef %0, ptr noundef %1, ptr noundef %2, i32 noundef %3) #4 {
  %5 = alloca ptr, align 8
  %6 = alloca ptr, align 8
  %7 = alloca ptr, align 8
  %8 = alloca i32, align 4
  store ptr %0, ptr %5, align 8, !tbaa !23
  store ptr %1, ptr %6, align 8, !tbaa !30
  store ptr %2, ptr %7, align 8, !tbaa !103
  store i32 %3, ptr %8, align 4, !tbaa !79
  %9 = load ptr, ptr %6, align 8, !tbaa !30
  %10 = load ptr, ptr %7, align 8, !tbaa !103
  %11 = load i32, ptr %8, align 4, !tbaa !79
  call void @setgcVraw(ptr noundef %9, ptr noundef %10, i32 noundef %11)
  %12 = load ptr, ptr %5, align 8, !tbaa !23
  %13 = load ptr, ptr %6, align 8, !tbaa !30
  call void @checklivetv(ptr noundef %12, ptr noundef %13, ptr noundef @.str)
  ret void
}

; Function Attrs: nounwind uwtable
define internal i32 @const_gc(ptr noundef %0, ptr noundef %1, i32 noundef %2) #0 {
  %4 = alloca i32, align 4
  %5 = alloca ptr, align 8
  %6 = alloca ptr, align 8
  %7 = alloca i32, align 4
  %8 = alloca ptr, align 8
  %9 = alloca %union.TValue, align 8
  %10 = alloca ptr, align 8
  %11 = alloca i32, align 4
  store ptr %0, ptr %5, align 8, !tbaa !62
  store ptr %1, ptr %6, align 8, !tbaa !103
  store i32 %2, ptr %7, align 4, !tbaa !79
  call void @llvm.lifetime.start.p0(i64 8, ptr %8) #11
  %12 = load ptr, ptr %5, align 8, !tbaa !62
  %13 = getelementptr inbounds nuw %struct.FuncState, ptr %12, i32 0, i32 2
  %14 = load ptr, ptr %13, align 8, !tbaa !67
  store ptr %14, ptr %8, align 8, !tbaa !23
  call void @llvm.lifetime.start.p0(i64 8, ptr %9) #11
  call void @llvm.lifetime.start.p0(i64 8, ptr %10) #11
  %15 = load ptr, ptr %8, align 8, !tbaa !23
  %16 = load ptr, ptr %6, align 8, !tbaa !103
  %17 = load i32, ptr %7, align 4, !tbaa !79
  call void @setgcV(ptr noundef %15, ptr noundef %9, ptr noundef %16, i32 noundef %17)
  %18 = load ptr, ptr %8, align 8, !tbaa !23
  %19 = load ptr, ptr %5, align 8, !tbaa !62
  %20 = getelementptr inbounds nuw %struct.FuncState, ptr %19, i32 0, i32 0
  %21 = load ptr, ptr %20, align 8, !tbaa !26
  %22 = call ptr @lj_tab_set(ptr noundef %18, ptr noundef %21, ptr noundef %9)
  store ptr %22, ptr %10, align 8, !tbaa !30
  %23 = load ptr, ptr %10, align 8, !tbaa !30
  %24 = getelementptr inbounds nuw %struct.anon.0, ptr %23, i32 0, i32 1
  %25 = load i32, ptr %24, align 4, !tbaa !32
  %26 = icmp eq i32 %25, 0
  br i1 %26, label %27, label %31

27:                                               ; preds = %3
  %28 = load ptr, ptr %10, align 8, !tbaa !30
  %29 = getelementptr inbounds nuw %struct.anon.0, ptr %28, i32 0, i32 0
  %30 = load i32, ptr %29, align 8, !tbaa !32
  store i32 %30, ptr %4, align 4
  store i32 1, ptr %11, align 4
  br label %41

31:                                               ; preds = %3
  %32 = load ptr, ptr %5, align 8, !tbaa !62
  %33 = getelementptr inbounds nuw %struct.FuncState, ptr %32, i32 0, i32 11
  %34 = load i32, ptr %33, align 8, !tbaa !72
  %35 = zext i32 %34 to i64
  %36 = load ptr, ptr %10, align 8, !tbaa !30
  store i64 %35, ptr %36, align 8, !tbaa !32
  %37 = load ptr, ptr %5, align 8, !tbaa !62
  %38 = getelementptr inbounds nuw %struct.FuncState, ptr %37, i32 0, i32 11
  %39 = load i32, ptr %38, align 8, !tbaa !72
  %40 = add i32 %39, 1
  store i32 %40, ptr %38, align 8, !tbaa !72
  store i32 %39, ptr %4, align 4
  store i32 1, ptr %11, align 4
  br label %41

41:                                               ; preds = %31, %27
  call void @llvm.lifetime.end.p0(i64 8, ptr %10) #11
  call void @llvm.lifetime.end.p0(i64 8, ptr %9) #11
  call void @llvm.lifetime.end.p0(i64 8, ptr %8) #11
  %42 = load i32, ptr %4, align 4
  ret i32 %42
}

; Function Attrs: nounwind uwtable
define internal i32 @const_str(ptr noundef %0, ptr noundef %1) #0 {
  %3 = alloca ptr, align 8
  %4 = alloca ptr, align 8
  store ptr %0, ptr %3, align 8, !tbaa !62
  store ptr %1, ptr %4, align 8, !tbaa !127
  %5 = load ptr, ptr %3, align 8, !tbaa !62
  %6 = load ptr, ptr %4, align 8, !tbaa !127
  %7 = getelementptr inbounds nuw %struct.ExpDesc, ptr %6, i32 0, i32 0
  %8 = load ptr, ptr %7, align 8, !tbaa !32
  %9 = call i32 @const_gc(ptr noundef %5, ptr noundef %8, i32 noundef -5)
  ret i32 %9
}

; Function Attrs: alwaysinline nounwind uwtable
define internal double @numberVnum(ptr noundef %0) #4 {
  %2 = alloca ptr, align 8
  store ptr %0, ptr %2, align 8, !tbaa !30
  %3 = load ptr, ptr %2, align 8, !tbaa !30
  %4 = load double, ptr %3, align 8, !tbaa !32
  ret double %4
}

; Function Attrs: nounwind uwtable
define internal ptr @lex_str(ptr noundef %0) #0 {
  %2 = alloca ptr, align 8
  %3 = alloca ptr, align 8
  store ptr %0, ptr %2, align 8, !tbaa !4
  call void @llvm.lifetime.start.p0(i64 8, ptr %3) #11
  %4 = load ptr, ptr %2, align 8, !tbaa !4
  %5 = getelementptr inbounds nuw %struct.LexState, ptr %4, i32 0, i32 7
  %6 = load i32, ptr %5, align 4, !tbaa !58
  %7 = icmp ne i32 %6, 287
  br i1 %7, label %8, label %15

8:                                                ; preds = %1
  %9 = load ptr, ptr %2, align 8, !tbaa !4
  %10 = getelementptr inbounds nuw %struct.LexState, ptr %9, i32 0, i32 7
  %11 = load i32, ptr %10, align 4, !tbaa !58
  %12 = icmp ne i32 %11, 266
  br i1 %12, label %13, label %15

13:                                               ; preds = %8
  %14 = load ptr, ptr %2, align 8, !tbaa !4
  call void @err_token(ptr noundef %14, i32 noundef 287) #13
  unreachable

15:                                               ; preds = %8, %1
  %16 = load ptr, ptr %2, align 8, !tbaa !4
  %17 = getelementptr inbounds nuw %struct.LexState, ptr %16, i32 0, i32 2
  %18 = getelementptr inbounds nuw %struct.GCRef, ptr %17, i32 0, i32 0
  %19 = load i64, ptr %18, align 8, !tbaa !32
  %20 = and i64 %19, 140737488355327
  %21 = inttoptr i64 %20 to ptr
  store ptr %21, ptr %3, align 8, !tbaa !24
  %22 = load ptr, ptr %2, align 8, !tbaa !4
  call void @lj_lex_next(ptr noundef %22)
  %23 = load ptr, ptr %3, align 8, !tbaa !24
  call void @llvm.lifetime.end.p0(i64 8, ptr %3) #11
  ret ptr %23
}

; Function Attrs: alwaysinline nounwind uwtable
define internal void @expr_init(ptr noundef %0, i32 noundef %1, i32 noundef %2) #4 {
  %4 = alloca ptr, align 8
  %5 = alloca i32, align 4
  %6 = alloca i32, align 4
  store ptr %0, ptr %4, align 8, !tbaa !127
  store i32 %1, ptr %5, align 4, !tbaa !79
  store i32 %2, ptr %6, align 4, !tbaa !79
  %7 = load i32, ptr %5, align 4, !tbaa !79
  %8 = load ptr, ptr %4, align 8, !tbaa !127
  %9 = getelementptr inbounds nuw %struct.ExpDesc, ptr %8, i32 0, i32 1
  store i32 %7, ptr %9, align 8, !tbaa !117
  %10 = load i32, ptr %6, align 4, !tbaa !79
  %11 = load ptr, ptr %4, align 8, !tbaa !127
  %12 = getelementptr inbounds nuw %struct.ExpDesc, ptr %11, i32 0, i32 0
  %13 = getelementptr inbounds nuw %struct.anon.3, ptr %12, i32 0, i32 0
  store i32 %10, ptr %13, align 8, !tbaa !32
  %14 = load ptr, ptr %4, align 8, !tbaa !127
  %15 = getelementptr inbounds nuw %struct.ExpDesc, ptr %14, i32 0, i32 2
  store i32 -1, ptr %15, align 4, !tbaa !129
  %16 = load ptr, ptr %4, align 8, !tbaa !127
  %17 = getelementptr inbounds nuw %struct.ExpDesc, ptr %16, i32 0, i32 3
  store i32 -1, ptr %17, align 8, !tbaa !126
  ret void
}

; Function Attrs: nounwind uwtable
define internal void @expr_index(ptr noundef %0, ptr noundef %1, ptr noundef %2) #0 {
  %4 = alloca ptr, align 8
  %5 = alloca ptr, align 8
  %6 = alloca ptr, align 8
  %7 = alloca double, align 8
  %8 = alloca i32, align 4
  %9 = alloca i32, align 4
  %10 = alloca i32, align 4
  store ptr %0, ptr %4, align 8, !tbaa !62
  store ptr %1, ptr %5, align 8, !tbaa !127
  store ptr %2, ptr %6, align 8, !tbaa !127
  %11 = load ptr, ptr %5, align 8, !tbaa !127
  %12 = getelementptr inbounds nuw %struct.ExpDesc, ptr %11, i32 0, i32 1
  store i32 9, ptr %12, align 8, !tbaa !117
  %13 = load ptr, ptr %6, align 8, !tbaa !127
  %14 = getelementptr inbounds nuw %struct.ExpDesc, ptr %13, i32 0, i32 1
  %15 = load i32, ptr %14, align 8, !tbaa !117
  %16 = icmp eq i32 %15, 4
  br i1 %16, label %17, label %43

17:                                               ; preds = %3
  call void @llvm.lifetime.start.p0(i64 8, ptr %7) #11
  %18 = load ptr, ptr %6, align 8, !tbaa !127
  %19 = getelementptr inbounds nuw %struct.ExpDesc, ptr %18, i32 0, i32 0
  %20 = call double @numberVnum(ptr noundef %19)
  store double %20, ptr %7, align 8, !tbaa !149
  call void @llvm.lifetime.start.p0(i64 4, ptr %8) #11
  %21 = load double, ptr %7, align 8, !tbaa !149
  %22 = fptosi double %21 to i32
  store i32 %22, ptr %8, align 4, !tbaa !79
  %23 = load i32, ptr %8, align 4, !tbaa !79
  %24 = load i32, ptr %8, align 4, !tbaa !79
  %25 = trunc i32 %24 to i8
  %26 = zext i8 %25 to i32
  %27 = icmp eq i32 %23, %26
  br i1 %27, label %28, label %39

28:                                               ; preds = %17
  %29 = load double, ptr %7, align 8, !tbaa !149
  %30 = load i32, ptr %8, align 4, !tbaa !79
  %31 = sitofp i32 %30 to double
  %32 = fcmp oeq double %29, %31
  br i1 %32, label %33, label %39

33:                                               ; preds = %28
  %34 = load i32, ptr %8, align 4, !tbaa !79
  %35 = add i32 256, %34
  %36 = load ptr, ptr %5, align 8, !tbaa !127
  %37 = getelementptr inbounds nuw %struct.ExpDesc, ptr %36, i32 0, i32 0
  %38 = getelementptr inbounds nuw %struct.anon.3, ptr %37, i32 0, i32 1
  store i32 %35, ptr %38, align 4, !tbaa !32
  store i32 1, ptr %9, align 4
  br label %40

39:                                               ; preds = %28, %17
  store i32 0, ptr %9, align 4
  br label %40

40:                                               ; preds = %39, %33
  call void @llvm.lifetime.end.p0(i64 4, ptr %8) #11
  call void @llvm.lifetime.end.p0(i64 8, ptr %7) #11
  %41 = load i32, ptr %9, align 4
  switch i32 %41, label %73 [
    i32 0, label %42
    i32 1, label %72
  ]

42:                                               ; preds = %40
  br label %65

43:                                               ; preds = %3
  %44 = load ptr, ptr %6, align 8, !tbaa !127
  %45 = getelementptr inbounds nuw %struct.ExpDesc, ptr %44, i32 0, i32 1
  %46 = load i32, ptr %45, align 8, !tbaa !117
  %47 = icmp eq i32 %46, 3
  br i1 %47, label %48, label %64

48:                                               ; preds = %43
  call void @llvm.lifetime.start.p0(i64 4, ptr %10) #11
  %49 = load ptr, ptr %4, align 8, !tbaa !62
  %50 = load ptr, ptr %6, align 8, !tbaa !127
  %51 = call i32 @const_str(ptr noundef %49, ptr noundef %50)
  store i32 %51, ptr %10, align 4, !tbaa !79
  %52 = load i32, ptr %10, align 4, !tbaa !79
  %53 = icmp ule i32 %52, 255
  br i1 %53, label %54, label %60

54:                                               ; preds = %48
  %55 = load i32, ptr %10, align 4, !tbaa !79
  %56 = xor i32 %55, -1
  %57 = load ptr, ptr %5, align 8, !tbaa !127
  %58 = getelementptr inbounds nuw %struct.ExpDesc, ptr %57, i32 0, i32 0
  %59 = getelementptr inbounds nuw %struct.anon.3, ptr %58, i32 0, i32 1
  store i32 %56, ptr %59, align 4, !tbaa !32
  store i32 1, ptr %9, align 4
  br label %61

60:                                               ; preds = %48
  store i32 0, ptr %9, align 4
  br label %61

61:                                               ; preds = %60, %54
  call void @llvm.lifetime.end.p0(i64 4, ptr %10) #11
  %62 = load i32, ptr %9, align 4
  switch i32 %62, label %73 [
    i32 0, label %63
    i32 1, label %72
  ]

63:                                               ; preds = %61
  br label %64

64:                                               ; preds = %63, %43
  br label %65

65:                                               ; preds = %64, %42
  %66 = load ptr, ptr %4, align 8, !tbaa !62
  %67 = load ptr, ptr %6, align 8, !tbaa !127
  %68 = call i32 @expr_toanyreg(ptr noundef %66, ptr noundef %67)
  %69 = load ptr, ptr %5, align 8, !tbaa !127
  %70 = getelementptr inbounds nuw %struct.ExpDesc, ptr %69, i32 0, i32 0
  %71 = getelementptr inbounds nuw %struct.anon.3, ptr %70, i32 0, i32 1
  store i32 %68, ptr %71, align 4, !tbaa !32
  br label %72

72:                                               ; preds = %65, %61, %40
  ret void

73:                                               ; preds = %61, %40
  unreachable
}

; Function Attrs: nounwind uwtable
define internal void @expr_str(ptr noundef %0, ptr noundef %1) #0 {
  %3 = alloca ptr, align 8
  %4 = alloca ptr, align 8
  store ptr %0, ptr %3, align 8, !tbaa !4
  store ptr %1, ptr %4, align 8, !tbaa !127
  %5 = load ptr, ptr %4, align 8, !tbaa !127
  call void @expr_init(ptr noundef %5, i32 noundef 3, i32 noundef 0)
  %6 = load ptr, ptr %3, align 8, !tbaa !4
  %7 = call ptr @lex_str(ptr noundef %6)
  %8 = load ptr, ptr %4, align 8, !tbaa !127
  %9 = getelementptr inbounds nuw %struct.ExpDesc, ptr %8, i32 0, i32 0
  store ptr %7, ptr %9, align 8, !tbaa !32
  ret void
}

; Function Attrs: nounwind uwtable
define internal void @expr_field(ptr noundef %0, ptr noundef %1) #0 {
  %3 = alloca ptr, align 8
  %4 = alloca ptr, align 8
  %5 = alloca ptr, align 8
  %6 = alloca %struct.ExpDesc, align 8
  store ptr %0, ptr %3, align 8, !tbaa !4
  store ptr %1, ptr %4, align 8, !tbaa !127
  call void @llvm.lifetime.start.p0(i64 8, ptr %5) #11
  %7 = load ptr, ptr %3, align 8, !tbaa !4
  %8 = getelementptr inbounds nuw %struct.LexState, ptr %7, i32 0, i32 0
  %9 = load ptr, ptr %8, align 8, !tbaa !25
  store ptr %9, ptr %5, align 8, !tbaa !62
  call void @llvm.lifetime.start.p0(i64 24, ptr %6) #11
  %10 = load ptr, ptr %5, align 8, !tbaa !62
  %11 = load ptr, ptr %4, align 8, !tbaa !127
  %12 = call i32 @expr_toanyreg(ptr noundef %10, ptr noundef %11)
  %13 = load ptr, ptr %3, align 8, !tbaa !4
  call void @lj_lex_next(ptr noundef %13)
  %14 = load ptr, ptr %3, align 8, !tbaa !4
  call void @expr_str(ptr noundef %14, ptr noundef %6)
  %15 = load ptr, ptr %5, align 8, !tbaa !62
  %16 = load ptr, ptr %4, align 8, !tbaa !127
  call void @expr_index(ptr noundef %15, ptr noundef %16, ptr noundef %6)
  call void @llvm.lifetime.end.p0(i64 24, ptr %6) #11
  call void @llvm.lifetime.end.p0(i64 8, ptr %5) #11
  ret void
}