; Function Attrs: nounwind uwtable
define internal fastcc void @expr_field(ptr noundef %0, ptr noundef nonnull %1) unnamed_addr #0 {
  %3 = alloca %union.TValue, align 8
  %4 = alloca %struct.ExpDesc, align 8
  %5 = load ptr, ptr %0, align 8, !tbaa !19
  call void @llvm.lifetime.start.p0(i64 24, ptr nonnull %4) #11
  %6 = tail call fastcc i32 @expr_toanyreg(ptr noundef %5, ptr noundef %1)
  tail call void @lj_lex_next(ptr noundef nonnull %0) #11
  %7 = getelementptr inbounds nuw i8, ptr %4, i64 8
  store i32 3, ptr %7, align 8, !tbaa !79
  %8 = getelementptr inbounds nuw i8, ptr %4, i64 12
  store i32 -1, ptr %8, align 4, !tbaa !152
  %9 = getelementptr inbounds nuw i8, ptr %4, i64 16
  store i32 -1, ptr %9, align 8, !tbaa !81
  %10 = getelementptr inbounds nuw i8, ptr %0, i64 52
  %11 = load i32, ptr %10, align 4, !tbaa !65
  switch i32 %11, label %12 [
    i32 287, label %13
    i32 266, label %13
  ]

12:                                               ; preds = %2
  tail call fastcc void @err_token(ptr noundef nonnull %0, i32 noundef 287) #13
  unreachable

13:                                               ; preds = %2, %2
  %14 = getelementptr inbounds nuw i8, ptr %0, i64 16
  %15 = load i64, ptr %14, align 8, !tbaa !25
  %16 = and i64 %15, 140737488355327
  %17 = inttoptr i64 %16 to ptr
  tail call void @lj_lex_next(ptr noundef nonnull %0) #11
  store ptr %17, ptr %4, align 8, !tbaa !25
  %18 = getelementptr inbounds nuw i8, ptr %1, i64 8
  store i32 9, ptr %18, align 8, !tbaa !79
  %19 = getelementptr inbounds nuw i8, ptr %5, i64 16
  %20 = load ptr, ptr %19, align 8, !tbaa !50
  call void @llvm.lifetime.start.p0(i64 8, ptr nonnull %3) #11
  %21 = or disjoint i64 %16, -703687441776640
  store i64 %21, ptr %3, align 8, !tbaa !25
  %22 = load ptr, ptr %5, align 8, !tbaa !20
  %23 = call ptr @lj_tab_set(ptr noundef %20, ptr noundef %22, ptr noundef nonnull %3) #11
  %24 = getelementptr inbounds nuw i8, ptr %23, i64 4
  %25 = load i32, ptr %24, align 4, !tbaa !25
  %26 = icmp eq i32 %25, 0
  br i1 %26, label %27, label %29

27:                                               ; preds = %13
  %28 = load i32, ptr %23, align 8, !tbaa !25
  br label %const_str.exit.i

29:                                               ; preds = %13
  %30 = getelementptr inbounds nuw i8, ptr %5, i64 64
  %31 = load i32, ptr %30, align 8, !tbaa !107
  %32 = zext i32 %31 to i64
  store i64 %32, ptr %23, align 8, !tbaa !25
  %33 = load i32, ptr %30, align 8, !tbaa !107
  %34 = add i32 %33, 1
  store i32 %34, ptr %30, align 8, !tbaa !107
  br label %const_str.exit.i

const_str.exit.i:                                 ; preds = %29, %27
  %.0.i.i.i = phi i32 [ %28, %27 ], [ %33, %29 ]
  call void @llvm.lifetime.end.p0(i64 8, ptr nonnull %3) #11
  %35 = icmp ult i32 %.0.i.i.i, 256
  br i1 %35, label %36, label %.thread.i

36:                                               ; preds = %const_str.exit.i
  %37 = xor i32 %.0.i.i.i, -1
  br label %expr_index.exit

.thread.i:                                        ; preds = %const_str.exit.i
  %38 = call fastcc i32 @expr_toanyreg(ptr noundef nonnull %5, ptr noundef nonnull %4)
  br label %expr_index.exit

expr_index.exit:                                  ; preds = %36, %.thread.i
  %.sink.i = phi i32 [ %37, %36 ], [ %38, %.thread.i ]
  %39 = getelementptr inbounds nuw i8, ptr %1, i64 4
  store i32 %.sink.i, ptr %39, align 4, !tbaa !25
  call void @llvm.lifetime.end.p0(i64 24, ptr nonnull %4) #11
  ret void
}